; ModuleID = '16/625.c'
source_filename = "16/625.c"
target datalayout = "e-m:e-p270:32:32-p271:32:32-p272:64:64-i64:64-f80:128-n8:16:32:64-S128"
target triple = "x86_64-pc-linux-gnu"

@.str = private unnamed_addr constant [3 x i8] c"%d\00", align 1
@.str.1 = private unnamed_addr constant [6 x i8] c"00001\00", align 1
@.str.2 = private unnamed_addr constant [9 x i8] c"%d%d%d%d\00", align 1
@.str.3 = private unnamed_addr constant [7 x i8] c"%d%d%d\00", align 1
@.str.4 = private unnamed_addr constant [5 x i8] c"%d%d\00", align 1

; Function Attrs: noinline nounwind uwtable
define dso_local i32 @main() #0 {
  %1 = alloca i32, align 4
  %2 = alloca i32, align 4
  %3 = alloca i32, align 4
  %4 = alloca i32, align 4
  %5 = alloca i32, align 4
  %6 = alloca i32, align 4
  %7 = alloca i32, align 4
  %8 = alloca i32, align 4
  %9 = alloca i32, align 4
  %10 = alloca i32, align 4
  %11 = alloca i32, align 4
  %12 = alloca i32, align 4
  store i32 0, i32* %1, align 4
  %13 = call i32 (i8*, ...) @__isoc99_scanf(i8* getelementptr inbounds ([3 x i8], [3 x i8]* @.str, i64 0, i64 0), i32* %2)
  %14 = load i32, i32* %2, align 4
  %15 = sdiv i32 %14, 10000
  %16 = icmp ne i32 %15, 0
  br i1 %16, label %17, label %19

17:                                               ; preds = %0
  %18 = call i32 (i8*, ...) @printf(i8* getelementptr inbounds ([6 x i8], [6 x i8]* @.str.1, i64 0, i64 0))
  br label %82

19:                                               ; preds = %0
  %20 = load i32, i32* %2, align 4
  %21 = sdiv i32 %20, 1000
  %22 = icmp ne i32 %21, 0
  br i1 %22, label %23, label %46

23:                                               ; preds = %19
  %24 = load i32, i32* %2, align 4
  %25 = sdiv i32 %24, 1000
  store i32 %25, i32* %4, align 4
  %26 = load i32, i32* %2, align 4
  %27 = load i32, i32* %4, align 4
  %28 = mul nsw i32 1000, %27
  %29 = sub nsw i32 %26, %28
  %30 = sdiv i32 %29, 100
  store i32 %30, i32* %5, align 4
  %31 = load i32, i32* %2, align 4
  %32 = load i32, i32* %4, align 4
  %33 = mul nsw i32 1000, %32
  %34 = sub nsw i32 %31, %33
  %35 = load i32, i32* %5, align 4
  %36 = mul nsw i32 100, %35
  %37 = sub nsw i32 %34, %36
  %38 = sdiv i32 %37, 10
  store i32 %38, i32* %6, align 4
  %39 = load i32, i32* %2, align 4
  %40 = srem i32 %39, 10
  store i32 %40, i32* %7, align 4
  %41 = load i32, i32* %7, align 4
  %42 = load i32, i32* %6, align 4
  %43 = load i32, i32* %5, align 4
  %44 = load i32, i32* %4, align 4
  %45 = call i32 (i8*, ...) @printf(i8* getelementptr inbounds ([9 x i8], [9 x i8]* @.str.2, i64 0, i64 0), i32 %41, i32 %42, i32 %43, i32 %44)
  br label %81

46:                                               ; preds = %19
  %47 = load i32, i32* %2, align 4
  %48 = sdiv i32 %47, 100
  %49 = icmp ne i32 %48, 0
  br i1 %49, label %50, label %64

50:                                               ; preds = %46
  %51 = load i32, i32* %2, align 4
  %52 = sdiv i32 %51, 100
  store i32 %52, i32* %8, align 4
  %53 = load i32, i32* %2, align 4
  %54 = load i32, i32* %8, align 4
  %55 = mul nsw i32 100, %54
  %56 = sub nsw i32 %53, %55
  %57 = sdiv i32 %56, 10
  store i32 %57, i32* %9, align 4
  %58 = load i32, i32* %2, align 4
  %59 = srem i32 %58, 10
  store i32 %59, i32* %10, align 4
  %60 = load i32, i32* %10, align 4
  %61 = load i32, i32* %9, align 4
  %62 = load i32, i32* %8, align 4
  %63 = call i32 (i8*, ...) @printf(i8* getelementptr inbounds ([7 x i8], [7 x i8]* @.str.3, i64 0, i64 0), i32 %60, i32 %61, i32 %62)
  br label %80

64:                                               ; preds = %46
  %65 = load i32, i32* %2, align 4
  %66 = sdiv i32 %65, 10
  %67 = icmp ne i32 %66, 0
  br i1 %67, label %68, label %76

68:                                               ; preds = %64
  %69 = load i32, i32* %2, align 4
  %70 = sdiv i32 %69, 10
  store i32 %70, i32* %11, align 4
  %71 = load i32, i32* %2, align 4
  %72 = srem i32 %71, 10
  store i32 %72, i32* %12, align 4
  %73 = load i32, i32* %12, align 4
  %74 = load i32, i32* %11, align 4
  %75 = call i32 (i8*, ...) @printf(i8* getelementptr inbounds ([5 x i8], [5 x i8]* @.str.4, i64 0, i64 0), i32 %73, i32 %74)
  br label %79

76:                                               ; preds = %64
  %77 = load i32, i32* %2, align 4
  %78 = call i32 (i8*, ...) @printf(i8* getelementptr inbounds ([3 x i8], [3 x i8]* @.str, i64 0, i64 0), i32 %77)
  br label %79

79:                                               ; preds = %76, %68
  br label %80

80:                                               ; preds = %79, %50
  br label %81

81:                                               ; preds = %80, %23
  br label %82

82:                                               ; preds = %81, %17
  ret i32 0
}

declare dso_local i32 @__isoc99_scanf(i8*, ...) #1

declare dso_local i32 @printf(i8*, ...) #1


!llvm.module.flags = !{!0}
!llvm.ident = !{!1}

!0 = !{i32 1, !"wchar_size", i32 4}
!1 = !{!"clang version 10.0.0-4ubuntu1 "}
