; ModuleID = 'source-C-CXX/15/625.c'
source_filename = "source-C-CXX/15/625.c"
target datalayout = "e-m:e-p270:32:32-p271:32:32-p272:64:64-i64:64-f80:128-n8:16:32:64-S128"
target triple = "x86_64-pc-linux-gnu"

@.str = private unnamed_addr constant [3 x i8] c"%d\00", align 1
@.str.1 = private unnamed_addr constant [6 x i8] c"00001\00", align 1
@.str.2 = private unnamed_addr constant [9 x i8] c"%d%d%d%d\00", align 1
@.str.3 = private unnamed_addr constant [7 x i8] c"%d%d%d\00", align 1
@.str.4 = private unnamed_addr constant [5 x i8] c"%d%d\00", align 1

; Function Attrs: nofree nounwind sspstrong uwtable
define dso_local i32 @main() local_unnamed_addr #0 {
  %1 = alloca i32, align 4
  %2 = bitcast i32* %1 to i8*
  call void @llvm.lifetime.start.p0i8(i64 4, i8* nonnull %2) #3
  %3 = call i32 (i8*, ...) @__isoc99_scanf(i8* getelementptr inbounds ([3 x i8], [3 x i8]* @.str, i64 0, i64 0), i32* nonnull %1)
  %4 = load i32, i32* %1, align 4, !tbaa !5
  %5 = add i32 %4, 9999
  %6 = icmp ult i32 %5, 19999
  br i1 %6, label %9, label %7

7:                                                ; preds = %0
  %8 = call i32 (i8*, ...) @printf(i8* nonnull dereferenceable(1) getelementptr inbounds ([6 x i8], [6 x i8]* @.str.1, i64 0, i64 0))
  br label %53

9:                                                ; preds = %0
  %10 = trunc i32 %4 to i16
  %11 = sdiv i16 %10, 1000
  %12 = sext i16 %11 to i32
  %13 = add nsw i32 %4, 999
  %14 = icmp ult i32 %13, 1999
  br i1 %14, label %27, label %15

15:                                               ; preds = %9
  %16 = mul nsw i32 %12, -1000
  %17 = add nsw i32 %16, %4
  %18 = trunc i32 %17 to i16
  %19 = sdiv i16 %18, 100
  %20 = sext i16 %19 to i32
  %21 = mul nsw i32 %20, -100
  %22 = add nsw i32 %21, %17
  %23 = sdiv i32 %22, 10
  %24 = srem i16 %10, 10
  %25 = sext i16 %24 to i32
  %26 = call i32 (i8*, ...) @printf(i8* nonnull dereferenceable(1) getelementptr inbounds ([9 x i8], [9 x i8]* @.str.2, i64 0, i64 0), i32 %25, i32 %23, i32 %20, i32 %12)
  br label %53

27:                                               ; preds = %9
  %28 = sdiv i16 %10, 100
  %29 = sext i16 %28 to i32
  %30 = add nsw i32 %4, 99
  %31 = icmp ult i32 %30, 199
  br i1 %31, label %41, label %32

32:                                               ; preds = %27
  %33 = mul nsw i32 %29, -100
  %34 = add nsw i32 %33, %4
  %35 = trunc i32 %34 to i16
  %36 = sdiv i16 %35, 10
  %37 = sext i16 %36 to i32
  %38 = srem i16 %10, 10
  %39 = sext i16 %38 to i32
  %40 = call i32 (i8*, ...) @printf(i8* nonnull dereferenceable(1) getelementptr inbounds ([7 x i8], [7 x i8]* @.str.3, i64 0, i64 0), i32 %39, i32 %37, i32 %29)
  br label %53

41:                                               ; preds = %27
  %42 = add nsw i32 %4, 9
  %43 = icmp ult i32 %42, 19
  br i1 %43, label %51, label %44

44:                                               ; preds = %41
  %45 = trunc i32 %4 to i8
  %46 = sdiv i8 %45, 10
  %47 = sext i8 %46 to i32
  %48 = srem i8 %45, 10
  %49 = sext i8 %48 to i32
  %50 = call i32 (i8*, ...) @printf(i8* nonnull dereferenceable(1) getelementptr inbounds ([5 x i8], [5 x i8]* @.str.4, i64 0, i64 0), i32 %49, i32 %47)
  br label %53

51:                                               ; preds = %41
  %52 = call i32 (i8*, ...) @printf(i8* nonnull dereferenceable(1) getelementptr inbounds ([3 x i8], [3 x i8]* @.str, i64 0, i64 0), i32 %4)
  br label %53

53:                                               ; preds = %15, %44, %51, %32, %7
  call void @llvm.lifetime.end.p0i8(i64 4, i8* nonnull %2) #3
  ret i32 0
}

; Function Attrs: argmemonly mustprogress nofree nosync nounwind willreturn
declare void @llvm.lifetime.start.p0i8(i64 immarg, i8* nocapture) #1

; Function Attrs: nofree nounwind
declare noundef i32 @__isoc99_scanf(i8* nocapture noundef readonly, ...) local_unnamed_addr #2

; Function Attrs: nofree nounwind
declare noundef i32 @printf(i8* nocapture noundef readonly, ...) local_unnamed_addr #2

; Function Attrs: argmemonly mustprogress nofree nosync nounwind willreturn
declare void @llvm.lifetime.end.p0i8(i64 immarg, i8* nocapture) #1


!llvm.module.flags = !{!0, !1, !2, !3}
!llvm.ident = !{!4}

!0 = !{i32 1, !"wchar_size", i32 4}
!1 = !{i32 7, !"PIC Level", i32 2}
!2 = !{i32 7, !"PIE Level", i32 2}
!3 = !{i32 7, !"uwtable", i32 1}
!4 = !{!"clang version 13.0.0"}
!5 = !{!6, !6, i64 0}
!6 = !{!"int", !7, i64 0}
!7 = !{!"omnipotent char", !8, i64 0}
!8 = !{!"Simple C/C++ TBAA"}
